target datalayout = "e-m:e-p270:32:32-p271:32:32-p272:64:64-i64:64-i128:128-f80:128-n8:16:32:64-S128"
target triple = "x86_64-pc-linux-gnu"

%struct.wtap = type { ptr, ptr, i8, i32, i32, ptr, ptr, ptr, i32, ptr, ptr, ptr, ptr, ptr, ptr, ptr, ptr, ptr, ptr, i32, i32, ptr, ptr, ptr, ptr }
%struct.ascend_t = type { i64, i8, i64 }

; Function Attrs: null_pointer_is_valid sspstrong uwtable
define internal zeroext i1 @ascend_read(ptr noundef %0, ptr noundef %1, ptr noundef %2, ptr noundef %3, ptr noundef %4) #0 {
  %6 = alloca i1, align 1
  %7 = alloca ptr, align 8
  %8 = alloca ptr, align 8
  %9 = alloca ptr, align 8
  %10 = alloca ptr, align 8
  %11 = alloca ptr, align 8
  %12 = alloca ptr, align 8
  %13 = alloca i64, align 8
  %14 = alloca i32, align 4
  store ptr %0, ptr %7, align 8
  store ptr %1, ptr %8, align 8
  store ptr %2, ptr %9, align 8
  store ptr %3, ptr %10, align 8
  store ptr %4, ptr %11, align 8
  call void @llvm.lifetime.start.p0(i64 8, ptr %12) #11
  %15 = load ptr, ptr %7, align 8
  %16 = getelementptr inbounds nuw %struct.wtap, ptr %15, i32 0, i32 13
  %17 = load ptr, ptr %16, align 8
  store ptr %17, ptr %12, align 8
  call void @llvm.lifetime.start.p0(i64 8, ptr %13) #11
  %18 = load ptr, ptr %7, align 8
  %19 = getelementptr inbounds nuw %struct.wtap, ptr %18, i32 0, i32 0
  %20 = load ptr, ptr %19, align 8
  %21 = load ptr, ptr %12, align 8
  %22 = getelementptr inbounds nuw %struct.ascend_t, ptr %21, i32 0, i32 2
  %23 = load i64, ptr %22, align 8
  %24 = load ptr, ptr %9, align 8
  %25 = call i64 @file_seek(ptr noundef %20, i64 noundef %23, i32 noundef 0, ptr noundef %24)
  %26 = icmp eq i64 %25, -1
  br i1 %26, label %27, label %28

27:                                               ; preds = %5
  store i1 false, ptr %6, align 1
  store i32 1, ptr %14, align 4
  br label %63

28:                                               ; preds = %5
  %29 = load ptr, ptr %7, align 8
  %30 = load ptr, ptr %9, align 8
  %31 = load ptr, ptr %10, align 8
  %32 = call i64 @ascend_find_next_packet(ptr noundef %29, ptr noundef %30, ptr noundef %31)
  store i64 %32, ptr %13, align 8
  %33 = load i64, ptr %13, align 8
  %34 = icmp eq i64 %33, -1
  br i1 %34, label %35, label %36

35:                                               ; preds = %28
  store i1 false, ptr %6, align 1
  store i32 1, ptr %14, align 4
  br label %63

36:                                               ; preds = %28
  %37 = load ptr, ptr %12, align 8
  %38 = load ptr, ptr %7, align 8
  %39 = getelementptr inbounds nuw %struct.wtap, ptr %38, i32 0, i32 0
  %40 = load ptr, ptr %39, align 8
  %41 = load ptr, ptr %8, align 8
  %42 = load ptr, ptr %7, align 8
  %43 = getelementptr inbounds nuw %struct.wtap, ptr %42, i32 0, i32 4
  %44 = load i32, ptr %43, align 8
  %45 = load ptr, ptr %12, align 8
  %46 = getelementptr inbounds nuw %struct.ascend_t, ptr %45, i32 0, i32 2
  %47 = load ptr, ptr %9, align 8
  %48 = load ptr, ptr %10, align 8
  %49 = call zeroext i1 @parse_ascend(ptr noundef %37, ptr noundef %40, ptr noundef %41, i32 noundef %44, ptr noundef %46, ptr noundef %47, ptr noundef %48)
  br i1 %49, label %51, label %50

50:                                               ; preds = %36
  store i1 false, ptr %6, align 1
  store i32 1, ptr %14, align 4
  br label %63

51:                                               ; preds = %36
  %52 = load ptr, ptr %9, align 8
  store i32 0, ptr %52, align 4
  %53 = load ptr, ptr %10, align 8
  %54 = load ptr, ptr %53, align 8
  %55 = icmp ne ptr %54, null
  br i1 %55, label %56, label %60

56:                                               ; preds = %51
  %57 = load ptr, ptr %10, align 8
  %58 = load ptr, ptr %57, align 8
  call void @g_free(ptr noundef %58)
  %59 = load ptr, ptr %10, align 8
  store ptr null, ptr %59, align 8
  br label %60

60:                                               ; preds = %56, %51
  %61 = load i64, ptr %13, align 8
  %62 = load ptr, ptr %11, align 8
  store i64 %61, ptr %62, align 8
  store i1 true, ptr %6, align 1
  store i32 1, ptr %14, align 4
  br label %63

63:                                               ; preds = %60, %50, %35, %27
  call void @llvm.lifetime.end.p0(i64 8, ptr %13) #11
  call void @llvm.lifetime.end.p0(i64 8, ptr %12) #11
  %64 = load i1, ptr %6, align 1
  ret i1 %64
}