; Function Attrs: null_pointer_is_valid sspstrong uwtable
define internal noundef zeroext i1 @ascend_read(ptr noundef readonly captures(none) %0, ptr noundef %1, ptr noundef %2, ptr noundef %3, ptr noundef writeonly captures(none) %4) #0 {
  %6 = getelementptr inbounds nuw i8, ptr %0, i64 96
  %7 = load ptr, ptr %6, align 8
  %8 = load ptr, ptr %0, align 8
  %9 = getelementptr inbounds nuw i8, ptr %7, i64 16
  %10 = load i64, ptr %9, align 8
  %11 = tail call i64 @file_seek(ptr noundef %8, i64 noundef %10, i32 noundef 0, ptr noundef %2)
  %12 = icmp eq i64 %11, -1
  br i1 %12, label %25, label %13

13:                                               ; preds = %5
  %14 = tail call fastcc i64 @ascend_find_next_packet(ptr noundef %0, ptr noundef %2, ptr noundef %3)
  %15 = icmp eq i64 %14, -1
  br i1 %15, label %25, label %16

16:                                               ; preds = %13
  %17 = load ptr, ptr %0, align 8
  %18 = getelementptr inbounds nuw i8, ptr %0, i64 24
  %19 = load i32, ptr %18, align 8
  %20 = tail call fastcc zeroext i1 @parse_ascend(ptr noundef %7, ptr noundef %17, ptr noundef %1, i32 noundef %19, ptr noundef nonnull %9, ptr noundef %2, ptr noundef %3)
  br i1 %20, label %21, label %25

21:                                               ; preds = %16
  store i32 0, ptr %2, align 4
  %22 = load ptr, ptr %3, align 8
  %.not = icmp eq ptr %22, null
  br i1 %.not, label %24, label %23

23:                                               ; preds = %21
  tail call void @g_free(ptr noundef nonnull %22)
  store ptr null, ptr %3, align 8
  br label %24

24:                                               ; preds = %23, %21
  store i64 %14, ptr %4, align 8
  br label %25

25:                                               ; preds = %16, %13, %5, %24
  %.0 = phi i1 [ true, %24 ], [ false, %5 ], [ false, %13 ], [ false, %16 ]
  ret i1 %.0
}